target datalayout = "e-m:e-p270:32:32-p271:32:32-p272:64:64-i64:64-i128:128-f80:128-n8:16:32:64-S128"
target triple = "x86_64-pc-linux-gnu"

; Function Attrs: mustprogress nounwind uwtable
define linkonce_odr hidden noundef float @_ZNSt14numeric_limitsIfE3maxEv() #2 comdat align 2 {
  ret float 0x47EFFFFFE0000000
}

; Function Attrs: mustprogress nounwind uwtable
define linkonce_odr noundef float @_ZSt4sqrtf(float noundef %0) #2 comdat {
  %2 = alloca float, align 4
  store float %0, ptr %2, align 4
  %3 = load float, ptr %2, align 4
  %4 = call float @sqrtf(float noundef %3) #9
  ret float %4
}

; Function Attrs: mustprogress uwtable
define hidden void @_ZN2cv12batchDistL2_IffEEvPKT_S3_miiPT0_PKh(ptr noundef %0, ptr noundef %1, i64 noundef %2, i32 noundef %3, i32 noundef %4, ptr noundef %5, ptr noundef %6) #0 {
  %8 = alloca ptr, align 8
  %9 = alloca ptr, align 8
  %10 = alloca i64, align 8
  %11 = alloca i32, align 4
  %12 = alloca i32, align 4
  %13 = alloca ptr, align 8
  %14 = alloca ptr, align 8
  %15 = alloca i32, align 4
  %16 = alloca float, align 4
  %17 = alloca i32, align 4
  store ptr %0, ptr %8, align 8
  store ptr %1, ptr %9, align 8
  store i64 %2, ptr %10, align 8
  store i32 %3, ptr %11, align 4
  store i32 %4, ptr %12, align 4
  store ptr %5, ptr %13, align 8
  store ptr %6, ptr %14, align 8
  %18 = load i64, ptr %10, align 8
  %19 = udiv i64 %18, 4
  store i64 %19, ptr %10, align 8
  %20 = load ptr, ptr %14, align 8
  %21 = icmp ne ptr %20, null
  br i1 %21, label %46, label %22

22:                                               ; preds = %7
  store i32 0, ptr %15, align 4
  br label %23

23:                                               ; preds = %42, %22
  %24 = load i32, ptr %15, align 4
  %25 = load i32, ptr %11, align 4
  %26 = icmp slt i32 %24, %25
  br i1 %26, label %27, label %45

27:                                               ; preds = %23
  %28 = load ptr, ptr %8, align 8
  %29 = load ptr, ptr %9, align 8
  %30 = load i64, ptr %10, align 8
  %31 = load i32, ptr %15, align 4
  %32 = sext i32 %31 to i64
  %33 = mul i64 %30, %32
  %34 = getelementptr inbounds float, ptr %29, i64 %33
  %35 = load i32, ptr %12, align 4
  %36 = call noundef float @_ZN2cv3hal10normL2Sqr_EPKfS2_i(ptr noundef %28, ptr noundef %34, i32 noundef %35)
  %37 = call noundef float @_ZSt4sqrtf(float noundef %36)
  %38 = load ptr, ptr %13, align 8
  %39 = load i32, ptr %15, align 4
  %40 = sext i32 %39 to i64
  %41 = getelementptr inbounds float, ptr %38, i64 %40
  store float %37, ptr %41, align 4
  br label %42

42:                                               ; preds = %27
  %43 = load i32, ptr %15, align 4
  %44 = add nsw i32 %43, 1
  store i32 %44, ptr %15, align 4
  br label %23, !llvm.loop !7

45:                                               ; preds = %23
  br label %82

46:                                               ; preds = %7
  %47 = call noundef float @_ZNSt14numeric_limitsIfE3maxEv() #9
  store float %47, ptr %16, align 4
  store i32 0, ptr %17, align 4
  br label %48

48:                                               ; preds = %78, %46
  %49 = load i32, ptr %17, align 4
  %50 = load i32, ptr %11, align 4
  %51 = icmp slt i32 %49, %50
  br i1 %51, label %52, label %81

52:                                               ; preds = %48
  %53 = load ptr, ptr %14, align 8
  %54 = load i32, ptr %17, align 4
  %55 = sext i32 %54 to i64
  %56 = getelementptr inbounds i8, ptr %53, i64 %55
  %57 = load i8, ptr %56, align 1
  %58 = icmp ne i8 %57, 0
  br i1 %58, label %59, label %70

59:                                               ; preds = %52
  %60 = load ptr, ptr %8, align 8
  %61 = load ptr, ptr %9, align 8
  %62 = load i64, ptr %10, align 8
  %63 = load i32, ptr %17, align 4
  %64 = sext i32 %63 to i64
  %65 = mul i64 %62, %64
  %66 = getelementptr inbounds float, ptr %61, i64 %65
  %67 = load i32, ptr %12, align 4
  %68 = call noundef float @_ZN2cv3hal10normL2Sqr_EPKfS2_i(ptr noundef %60, ptr noundef %66, i32 noundef %67)
  %69 = call noundef float @_ZSt4sqrtf(float noundef %68)
  br label %72

70:                                               ; preds = %52
  %71 = load float, ptr %16, align 4
  br label %72

72:                                               ; preds = %70, %59
  %73 = phi float [ %69, %59 ], [ %71, %70 ]
  %74 = load ptr, ptr %13, align 8
  %75 = load i32, ptr %17, align 4
  %76 = sext i32 %75 to i64
  %77 = getelementptr inbounds float, ptr %74, i64 %76
  store float %73, ptr %77, align 4
  br label %78

78:                                               ; preds = %72
  %79 = load i32, ptr %17, align 4
  %80 = add nsw i32 %79, 1
  store i32 %80, ptr %17, align 4
  br label %48, !llvm.loop !8

81:                                               ; preds = %48
  br label %82

82:                                               ; preds = %81, %45
  ret void
}

; Function Attrs: mustprogress uwtable
define internal void @_ZN2cvL15batchDistL2_32fEPKfS1_miiPfPKh(ptr noundef %0, ptr noundef %1, i64 noundef %2, i32 noundef %3, i32 noundef %4, ptr noundef %5, ptr noundef %6) #0 {
  %8 = alloca ptr, align 8
  %9 = alloca ptr, align 8
  %10 = alloca i64, align 8
  %11 = alloca i32, align 4
  %12 = alloca i32, align 4
  %13 = alloca ptr, align 8
  %14 = alloca ptr, align 8
  store ptr %0, ptr %8, align 8
  store ptr %1, ptr %9, align 8
  store i64 %2, ptr %10, align 8
  store i32 %3, ptr %11, align 4
  store i32 %4, ptr %12, align 4
  store ptr %5, ptr %13, align 8
  store ptr %6, ptr %14, align 8
  %15 = load ptr, ptr %8, align 8
  %16 = load ptr, ptr %9, align 8
  %17 = load i64, ptr %10, align 8
  %18 = load i32, ptr %11, align 4
  %19 = load i32, ptr %12, align 4
  %20 = load ptr, ptr %13, align 8
  %21 = load ptr, ptr %14, align 8
  call void @_ZN2cv12batchDistL2_IffEEvPKT_S3_miiPT0_PKh(ptr noundef %15, ptr noundef %16, i64 noundef %17, i32 noundef %18, i32 noundef %19, ptr noundef %20, ptr noundef %21)
  ret void
}